target datalayout = "e-m:e-p270:32:32-p271:32:32-p272:64:64-i64:64-i128:128-f80:128-n8:16:32:64-S128"
target triple = "x86_64-pc-linux-gnu"

%struct.htree_node = type { i32, ptr, ptr, i32, i32 }

; Function Attrs: nounwind uwtable
define internal void @free_nodes(ptr noundef %0, i32 noundef %1) #0 {
  %3 = alloca ptr, align 8
  %4 = alloca i32, align 4
  store ptr %0, ptr %3, align 8, !tbaa !12
  store i32 %1, ptr %4, align 4, !tbaa !8
  %5 = load ptr, ptr %3, align 8, !tbaa !12
  %6 = load i32, ptr %5, align 8, !tbaa !16
  %7 = icmp eq i32 %6, 0
  br i1 %7, label %8, label %14

8:                                                ; preds = %2
  %9 = load i32, ptr %4, align 4, !tbaa !8
  %10 = icmp ne i32 %9, 0
  br i1 %10, label %13, label %11

11:                                               ; preds = %8
  %12 = load ptr, ptr %3, align 8, !tbaa !12
  call void @free(ptr noundef %12) #5
  br label %13

13:                                               ; preds = %11, %8
  br label %26

14:                                               ; preds = %2
  %15 = load ptr, ptr %3, align 8, !tbaa !12
  %16 = getelementptr inbounds nuw %struct.htree_node, ptr %15, i32 0, i32 1
  %17 = load ptr, ptr %16, align 8, !tbaa !16
  call void @free_nodes(ptr noundef %17, i32 noundef 0)
  %18 = load ptr, ptr %3, align 8, !tbaa !12
  %19 = getelementptr inbounds nuw %struct.htree_node, ptr %18, i32 0, i32 2
  %20 = load ptr, ptr %19, align 8, !tbaa !16
  call void @free_nodes(ptr noundef %20, i32 noundef 0)
  %21 = load i32, ptr %4, align 4, !tbaa !8
  %22 = icmp ne i32 %21, 0
  br i1 %22, label %25, label %23

23:                                               ; preds = %14
  %24 = load ptr, ptr %3, align 8, !tbaa !12
  call void @free(ptr noundef %24) #5
  br label %25

25:                                               ; preds = %23, %14
  br label %26

26:                                               ; preds = %25, %13
  ret void
}