; Function Attrs: nounwind uwtable
define internal fastcc void @free_nodes(ptr noundef captures(none) %0, i32 noundef range(i32 0, 2) %1) unnamed_addr #0 {
  %3 = load i32, ptr %0, align 8, !tbaa !3
  %4 = icmp eq i32 %3, 0
  br i1 %4, label %5, label %6

5:                                                ; preds = %2
  %.not6 = icmp eq i32 %1, 0
  br i1 %.not6, label %.sink.split, label %11

6:                                                ; preds = %2
  %7 = getelementptr inbounds nuw i8, ptr %0, i64 8
  %8 = load ptr, ptr %7, align 8, !tbaa !3
  tail call fastcc void @free_nodes(ptr noundef %8, i32 noundef 0)
  %9 = getelementptr inbounds nuw i8, ptr %0, i64 16
  %10 = load ptr, ptr %9, align 8, !tbaa !3
  tail call fastcc void @free_nodes(ptr noundef %10, i32 noundef 0)
  %.not = icmp eq i32 %1, 0
  br i1 %.not, label %.sink.split, label %11

.sink.split:                                      ; preds = %6, %5
  tail call void @free(ptr noundef nonnull %0) #8
  br label %11

11:                                               ; preds = %.sink.split, %6, %5
  ret void
}